; Function Attrs: mustprogress uwtable
define hidden void @_ZN7datalog15rule_properties10check_sortEP4sort(ptr noundef nonnull align 8 dereferenceable(258) %0, ptr noundef readonly captures(none) %1) local_unnamed_addr #3 align 2 {
_ZNK4decl13get_family_idEv.exit.thread.i.i.i:
  %2 = getelementptr inbounds nuw i8, ptr %1, i64 24
  %3 = load ptr, ptr %2, align 8, !tbaa !107
  %4 = getelementptr inbounds nuw i8, ptr %3, i64 24
  %.sroa.0.0.copyload = load i32, ptr %4, align 8, !tbaa !108
  %5 = getelementptr inbounds nuw i8, ptr %0, i64 128
  %6 = load i32, ptr %5, align 8, !tbaa !110
  %7 = load i32, ptr %3, align 8, !tbaa !111
  %8 = icmp eq i32 %7, %6
  br i1 %8, label %_ZNK17array_recognizers8is_arrayEP4sort.exit, label %_ZNK17array_recognizers8is_arrayEP4sort.exit.thread

_ZNK17array_recognizers8is_arrayEP4sort.exit:     ; preds = %_ZNK4decl13get_family_idEv.exit.thread.i.i.i
  %9 = getelementptr inbounds nuw i8, ptr %3, i64 4
  %10 = load i32, ptr %9, align 4, !tbaa !115
  %11 = icmp eq i32 %10, 0
  br i1 %11, label %_ZNK7datalog12dl_decl_util12is_rule_sortEP4sort.exit.thread, label %_ZNK17array_recognizers8is_arrayEP4sort.exit.thread

_ZNK17array_recognizers8is_arrayEP4sort.exit.thread: ; preds = %_ZNK4decl13get_family_idEv.exit.thread.i.i.i, %_ZNK17array_recognizers8is_arrayEP4sort.exit
  %12 = icmp eq i32 %.sroa.0.0.copyload, 0
  br i1 %12, label %41, label %13

13:                                               ; preds = %_ZNK17array_recognizers8is_arrayEP4sort.exit.thread
  %14 = getelementptr inbounds nuw i8, ptr %0, i64 56
  %15 = tail call noundef i32 @_ZNK7datalog12dl_decl_util13get_family_idEv(ptr noundef nonnull align 8 dereferenceable(28) %14)
  %16 = load ptr, ptr %2, align 8, !tbaa !107
  %17 = icmp eq ptr %16, null
  br i1 %17, label %_ZNK7datalog12dl_decl_util12is_rule_sortEP4sort.exit.thread, label %_ZNK4decl13get_family_idEv.exit.thread.i.i.i4

_ZNK4decl13get_family_idEv.exit.thread.i.i.i4:    ; preds = %13
  %18 = load i32, ptr %16, align 8, !tbaa !111
  %19 = icmp eq i32 %18, %15
  br i1 %19, label %_ZNK7datalog12dl_decl_util12is_rule_sortEP4sort.exit, label %_ZNK7datalog12dl_decl_util12is_rule_sortEP4sort.exit.thread

_ZNK7datalog12dl_decl_util12is_rule_sortEP4sort.exit: ; preds = %_ZNK4decl13get_family_idEv.exit.thread.i.i.i4
  %20 = getelementptr inbounds nuw i8, ptr %16, i64 4
  %21 = load i32, ptr %20, align 4, !tbaa !115
  %22 = icmp eq i32 %21, 2
  br i1 %22, label %41, label %_ZNK7datalog12dl_decl_util12is_rule_sortEP4sort.exit.thread

_ZNK7datalog12dl_decl_util12is_rule_sortEP4sort.exit.thread: ; preds = %13, %_ZNK4decl13get_family_idEv.exit.thread.i.i.i4, %_ZNK7datalog12dl_decl_util12is_rule_sortEP4sort.exit, %_ZNK17array_recognizers8is_arrayEP4sort.exit
  %23 = getelementptr inbounds nuw i8, ptr %0, i64 248
  %24 = getelementptr inbounds nuw i8, ptr %0, i64 176
  %25 = load ptr, ptr %23, align 8, !tbaa !77
  %26 = icmp eq ptr %25, null
  br i1 %26, label %33, label %27

27:                                               ; preds = %_ZNK7datalog12dl_decl_util12is_rule_sortEP4sort.exit.thread
  %28 = getelementptr inbounds i8, ptr %25, i64 -4
  %29 = load i32, ptr %28, align 4, !tbaa !78
  %30 = getelementptr inbounds i8, ptr %25, i64 -8
  %31 = load i32, ptr %30, align 4, !tbaa !78
  %32 = icmp eq i32 %29, %31
  br i1 %32, label %33, label %_ZN6vectorIPN7datalog4ruleELb0EjE9push_backERKS2_.exit

33:                                               ; preds = %27, %_ZNK7datalog12dl_decl_util12is_rule_sortEP4sort.exit.thread
  tail call void @_ZN6vectorIPN7datalog4ruleELb0EjE13expand_vectorEv(ptr noundef nonnull align 8 dereferenceable(8) %23)
  %.pre.i = load ptr, ptr %23, align 8, !tbaa !77
  %.phi.trans.insert.i = getelementptr inbounds i8, ptr %.pre.i, i64 -4
  %.pre2.i = load i32, ptr %.phi.trans.insert.i, align 4, !tbaa !78
  br label %_ZN6vectorIPN7datalog4ruleELb0EjE9push_backERKS2_.exit

_ZN6vectorIPN7datalog4ruleELb0EjE9push_backERKS2_.exit: ; preds = %27, %33
  %34 = phi i32 [ %.pre2.i, %33 ], [ %29, %27 ]
  %35 = phi ptr [ %.pre.i, %33 ], [ %25, %27 ]
  %36 = getelementptr inbounds i8, ptr %35, i64 -4
  %37 = zext i32 %34 to i64
  %38 = getelementptr inbounds nuw ptr, ptr %35, i64 %37
  %39 = load ptr, ptr %24, align 8, !tbaa !79
  store ptr %39, ptr %38, align 8, !tbaa !79
  %40 = add i32 %34, 1
  store i32 %40, ptr %36, align 4, !tbaa !78
  br label %41

41:                                               ; preds = %_ZN6vectorIPN7datalog4ruleELb0EjE9push_backERKS2_.exit, %_ZNK7datalog12dl_decl_util12is_rule_sortEP4sort.exit, %_ZNK17array_recognizers8is_arrayEP4sort.exit.thread
  ret void
}